; Function Attrs: nounwind uwtable
define void @gui_focus(ptr noundef readonly captures(none) %0, i32 noundef %1) local_unnamed_addr #1 {
  %.not = icmp eq i32 %1, 0
  br i1 %.not, label %3, label %_turn_select_region_off.exit

3:                                                ; preds = %2
  %4 = getelementptr i8, ptr %0, i64 704
  %.val = load ptr, ptr %4, align 16, !tbaa !6
  %.not.i = icmp eq ptr %.val, null
  br i1 %.not.i, label %_turn_select_region_off.exit, label %5

5:                                                ; preds = %3
  %6 = getelementptr inbounds nuw i8, ptr %.val, i64 100
  store i32 0, ptr %6, align 4, !tbaa !27
  %7 = getelementptr inbounds nuw i8, ptr %.val, i64 136
  store i32 0, ptr %7, align 8, !tbaa !34
  %8 = getelementptr inbounds nuw i8, ptr %.val, i64 88
  %9 = load ptr, ptr %8, align 8, !tbaa !113
  %10 = tail call i64 @gtk_toggle_button_get_type() #23
  %11 = tail call ptr @g_type_check_instance_cast(ptr noundef %9, i64 noundef %10) #21
  %12 = load i32, ptr %6, align 4, !tbaa !27
  tail call void @gtk_toggle_button_set_active(ptr noundef %11, i32 noundef %12) #21
  br label %_turn_select_region_off.exit

_turn_select_region_off.exit:                     ; preds = %5, %3, %2
  ret void
}